target datalayout = "e-m:e-p270:32:32-p271:32:32-p272:64:64-i64:64-i128:128-f80:128-n8:16:32:64-S128"
target triple = "x86_64-pc-linux-gnu"

; Function Attrs: nounwind sspstrong uwtable
define internal i64 @local__parse_int64_(ptr noundef %0) #0 {
  %2 = alloca i64, align 8
  %3 = alloca ptr, align 8
  %4 = alloca i64, align 8
  %5 = alloca i8, align 1
  %6 = alloca i32, align 4
  store ptr %0, ptr %3, align 8, !tbaa !19
  call void @llvm.lifetime.start.p0(i64 8, ptr %4) #8
  store i64 0, ptr %4, align 8, !tbaa !15
  call void @llvm.lifetime.start.p0(i64 1, ptr %5) #8
  %7 = load ptr, ptr %3, align 8, !tbaa !19
  %8 = load i8, ptr %7, align 1, !tbaa !25
  %9 = sext i8 %8 to i32
  %10 = icmp eq i32 %9, 0
  br i1 %10, label %11, label %12

11:                                               ; preds = %1
  store i64 -1, ptr %2, align 8
  store i32 1, ptr %6, align 4
  br label %44

12:                                               ; preds = %1
  br label %13

13:                                               ; preds = %41, %12
  %14 = load ptr, ptr %3, align 8, !tbaa !19
  %15 = getelementptr inbounds nuw i8, ptr %14, i32 1
  store ptr %15, ptr %3, align 8, !tbaa !19
  %16 = load i8, ptr %14, align 1, !tbaa !25
  store i8 %16, ptr %5, align 1, !tbaa !25
  %17 = sext i8 %16 to i32
  %18 = icmp ne i32 0, %17
  br i1 %18, label %19, label %42

19:                                               ; preds = %13
  %20 = load i8, ptr %5, align 1, !tbaa !25
  %21 = sext i8 %20 to i32
  %22 = icmp sge i32 %21, 48
  br i1 %22, label %23, label %40

23:                                               ; preds = %19
  %24 = load i8, ptr %5, align 1, !tbaa !25
  %25 = sext i8 %24 to i32
  %26 = icmp sle i32 %25, 57
  br i1 %26, label %27, label %40

27:                                               ; preds = %23
  %28 = load i64, ptr %4, align 8, !tbaa !15
  %29 = icmp sge i64 %28, 922337203685477580
  br i1 %29, label %30, label %31

30:                                               ; preds = %27
  store i64 -1, ptr %2, align 8
  store i32 1, ptr %6, align 4
  br label %44

31:                                               ; preds = %27
  %32 = load i64, ptr %4, align 8, !tbaa !15
  %33 = mul nsw i64 %32, 10
  %34 = load i8, ptr %5, align 1, !tbaa !25
  %35 = sext i8 %34 to i32
  %36 = sub nsw i32 %35, 48
  %37 = sext i32 %36 to i64
  %38 = add nsw i64 %33, %37
  store i64 %38, ptr %4, align 8, !tbaa !15
  br label %39

39:                                               ; preds = %31
  br label %41

40:                                               ; preds = %23, %19
  store i64 -1, ptr %2, align 8
  store i32 1, ptr %6, align 4
  br label %44

41:                                               ; preds = %39
  br label %13, !llvm.loop !48

42:                                               ; preds = %13
  %43 = load i64, ptr %4, align 8, !tbaa !15
  store i64 %43, ptr %2, align 8
  store i32 1, ptr %6, align 4
  br label %44

44:                                               ; preds = %42, %40, %30, %11
  call void @llvm.lifetime.end.p0(i64 1, ptr %5) #8
  call void @llvm.lifetime.end.p0(i64 8, ptr %4) #8
  %45 = load i64, ptr %2, align 8
  ret i64 %45
}

; Function Attrs: nounwind sspstrong uwtable
define internal i32 @local__parse_int_(ptr noundef %0) #0 {
  %2 = alloca i32, align 4
  %3 = alloca ptr, align 8
  %4 = alloca i64, align 8
  %5 = alloca i32, align 4
  store ptr %0, ptr %3, align 8, !tbaa !19
  call void @llvm.lifetime.start.p0(i64 8, ptr %4) #8
  %6 = load ptr, ptr %3, align 8, !tbaa !19
  %7 = call i64 @local__parse_int64_(ptr noundef %6)
  store i64 %7, ptr %4, align 8, !tbaa !15
  %8 = load i64, ptr %4, align 8, !tbaa !15
  %9 = icmp slt i64 %8, 0
  br i1 %9, label %13, label %10

10:                                               ; preds = %1
  %11 = load i64, ptr %4, align 8, !tbaa !15
  %12 = icmp sgt i64 %11, 2147483647
  br i1 %12, label %13, label %14

13:                                               ; preds = %10, %1
  store i32 -1, ptr %2, align 4
  store i32 1, ptr %5, align 4
  br label %17

14:                                               ; preds = %10
  %15 = load i64, ptr %4, align 8, !tbaa !15
  %16 = trunc i64 %15 to i32
  store i32 %16, ptr %2, align 4
  store i32 1, ptr %5, align 4
  br label %17

17:                                               ; preds = %14, %13
  call void @llvm.lifetime.end.p0(i64 8, ptr %4) #8
  %18 = load i32, ptr %2, align 4
  ret i32 %18
}