; Function Attrs: nofree norecurse nosync nounwind sspstrong memory(argmem: read) uwtable
define internal fastcc range(i32 -1, -2147483648) i32 @local__parse_int_(ptr noundef nonnull readonly captures(none) %0) unnamed_addr #9 {
  %2 = load i8, ptr %0, align 1, !tbaa !15
  %3 = icmp eq i8 %2, 0
  br i1 %3, label %local__parse_int64_.exit.thread, label %.preheader.i

.preheader.i:                                     ; preds = %1, %7
  %.pn.i = phi ptr [ %8, %7 ], [ %0, %1 ]
  %.01014.i = phi i64 [ %.fr, %7 ], [ 0, %1 ]
  %4 = phi i8 [ %.pr.i, %7 ], [ %2, %1 ]
  %5 = add i8 %4, -48
  %or.cond.i = icmp ugt i8 %5, 9
  %6 = icmp sgt i64 %.01014.i, 922337203685477579
  %or.cond13.i = or i1 %or.cond.i, %6
  br i1 %or.cond13.i, label %local__parse_int64_.exit.thread, label %7

7:                                                ; preds = %.preheader.i
  %8 = getelementptr inbounds nuw i8, ptr %.pn.i, i64 1
  %9 = mul nsw i64 %.01014.i, 10
  %10 = zext nneg i8 %5 to i64
  %11 = add nsw i64 %9, %10
  %.fr = freeze i64 %11
  %.pr.i = load i8, ptr %8, align 1, !tbaa !15
  %.not.i = icmp eq i8 %.pr.i, 0
  br i1 %.not.i, label %local__parse_int64_.exit, label %.preheader.i, !llvm.loop !22

local__parse_int64_.exit:                         ; preds = %7
  %or.cond = icmp ugt i64 %.fr, 2147483647
  %12 = trunc nuw nsw i64 %.fr to i32
  br i1 %or.cond, label %local__parse_int64_.exit.thread, label %13

local__parse_int64_.exit.thread:                  ; preds = %.preheader.i, %1, %local__parse_int64_.exit
  br label %13

13:                                               ; preds = %local__parse_int64_.exit, %local__parse_int64_.exit.thread
  %14 = phi i32 [ -1, %local__parse_int64_.exit.thread ], [ %12, %local__parse_int64_.exit ]
  ret i32 %14
}